; Function Attrs: mustprogress uwtable
define dso_local void @_ZN13TableResource14handlePreWriteEPj(ptr noundef nonnull align 8 captures(none) dereferenceable(88) %0, ptr noundef %1) unnamed_addr #7 align 2 {
  %3 = getelementptr inbounds nuw i8, ptr %0, i64 64
  %.05.i = load ptr, ptr %3, align 8, !tbaa !74
  %.not6.i = icmp eq ptr %.05.i, null
  br i1 %.not6.i, label %_ZN17ContainerResource14preWriteAllResEPj.exit, label %.lr.ph.i

.lr.ph.i:                                         ; preds = %2, %_ZN9SResource8preWriteEPj.exit.i
  %.07.i = phi ptr [ %.0.i, %_ZN9SResource8preWriteEPj.exit.i ], [ %.05.i, %2 ]
  %4 = getelementptr inbounds nuw i8, ptr %.07.i, i64 12
  %5 = load i32, ptr %4, align 4, !tbaa !20
  %.not.i.i = icmp eq i32 %5, -1
  br i1 %.not.i.i, label %6, label %_ZN9SResource8preWriteEPj.exit.i

6:                                                ; preds = %.lr.ph.i
  %7 = load ptr, ptr %.07.i, align 8, !tbaa !9
  %8 = getelementptr inbounds nuw i8, ptr %7, i64 32
  %9 = load ptr, ptr %8, align 8
  tail call void %9(ptr noundef nonnull align 8 dereferenceable(56) %.07.i, ptr noundef %1)
  %10 = load i32, ptr %1, align 4, !tbaa !7
  %11 = and i32 %10, 3
  %.not.i.i.i = icmp eq i32 %11, 0
  %12 = sub nuw nsw i32 4, %11
  %13 = select i1 %.not.i.i.i, i32 0, i32 %12
  %14 = add i32 %13, %10
  store i32 %14, ptr %1, align 4, !tbaa !7
  br label %_ZN9SResource8preWriteEPj.exit.i

_ZN9SResource8preWriteEPj.exit.i:                 ; preds = %6, %.lr.ph.i
  %15 = getelementptr inbounds nuw i8, ptr %.07.i, i64 32
  %.0.i = load ptr, ptr %15, align 8, !tbaa !74
  %.not.i = icmp eq ptr %.0.i, null
  br i1 %.not.i, label %_ZN17ContainerResource14preWriteAllResEPj.exit, label %.lr.ph.i, !llvm.loop !93

_ZN17ContainerResource14preWriteAllResEPj.exit:   ; preds = %_ZN9SResource8preWriteEPj.exit.i, %2
  %16 = getelementptr inbounds nuw i8, ptr %0, i64 72
  %17 = load i8, ptr %16, align 8, !tbaa !92
  %18 = icmp eq i8 %17, 2
  %19 = load i32, ptr %1, align 4, !tbaa !7
  %20 = lshr i32 %19, 2
  %21 = getelementptr inbounds nuw i8, ptr %0, i64 12
  %22 = getelementptr inbounds nuw i8, ptr %0, i64 56
  br i1 %18, label %23, label %28

23:                                               ; preds = %_ZN17ContainerResource14preWriteAllResEPj.exit
  %24 = or i32 %20, 536870912
  store i32 %24, ptr %21, align 4, !tbaa !20
  %25 = load i32, ptr %22, align 8, !tbaa !42
  %26 = mul i32 %25, 6
  %27 = add i32 %26, 2
  br label %33

28:                                               ; preds = %_ZN17ContainerResource14preWriteAllResEPj.exit
  %29 = or disjoint i32 %20, 1073741824
  store i32 %29, ptr %21, align 4, !tbaa !20
  %30 = load i32, ptr %22, align 8, !tbaa !42
  %31 = shl i32 %30, 3
  %32 = or disjoint i32 %31, 4
  br label %33

33:                                               ; preds = %28, %23
  %.sink = phi i32 [ %32, %28 ], [ %27, %23 ]
  %34 = load i32, ptr %1, align 4, !tbaa !7
  %35 = add i32 %.sink, %34
  store i32 %35, ptr %1, align 4, !tbaa !7
  ret void
}